; ModuleID = '54/1087.c'
source_filename = "54/1087.c"
target datalayout = "e-m:e-p270:32:32-p271:32:32-p272:64:64-i64:64-f80:128-n8:16:32:64-S128"
target triple = "x86_64-pc-linux-gnu"

@.str = private unnamed_addr constant [5 x i8] c"%d%d\00", align 1
@.str.1 = private unnamed_addr constant [4 x i8] c"%d\0A\00", align 1

; Function Attrs: noinline nounwind uwtable
define dso_local i32 @main() #0 {
  %1 = alloca i32, align 4
  %2 = alloca i32, align 4
  %3 = alloca i32, align 4
  %4 = alloca i32, align 4
  %5 = alloca i32, align 4
  %6 = alloca i32, align 4
  %7 = alloca i32, align 4
  store i32 0, i32* %1, align 4
  %8 = call i32 (i8*, ...) @__isoc99_scanf(i8* getelementptr inbounds ([5 x i8], [5 x i8]* @.str, i64 0, i64 0), i32* %5, i32* %3)
  store i32 1, i32* %7, align 4
  store i32 0, i32* %4, align 4
  br label %9

9:                                                ; preds = %45, %0
  %10 = load i32, i32* %4, align 4
  %11 = icmp eq i32 %10, 0
  br i1 %11, label %12, label %48

12:                                               ; preds = %9
  store i32 0, i32* %2, align 4
  %13 = load i32, i32* %7, align 4
  store i32 %13, i32* %6, align 4
  br label %14

14:                                               ; preds = %41, %12
  %15 = load i32, i32* %2, align 4
  %16 = load i32, i32* %5, align 4
  %17 = icmp slt i32 %15, %16
  br i1 %17, label %18, label %44

18:                                               ; preds = %14
  %19 = load i32, i32* %6, align 4
  %20 = load i32, i32* %5, align 4
  %21 = mul nsw i32 %19, %20
  %22 = load i32, i32* %3, align 4
  %23 = add nsw i32 %21, %22
  store i32 %23, i32* %4, align 4
  %24 = load i32, i32* %4, align 4
  %25 = load i32, i32* %5, align 4
  %26 = sub nsw i32 %25, 1
  %27 = srem i32 %24, %26
  %28 = icmp eq i32 %27, 0
  br i1 %28, label %34, label %29

29:                                               ; preds = %18
  %30 = load i32, i32* %2, align 4
  %31 = load i32, i32* %5, align 4
  %32 = sub nsw i32 %31, 1
  %33 = icmp eq i32 %30, %32
  br i1 %33, label %34, label %39

34:                                               ; preds = %29, %18
  %35 = load i32, i32* %4, align 4
  %36 = load i32, i32* %5, align 4
  %37 = sub nsw i32 %36, 1
  %38 = sdiv i32 %35, %37
  store i32 %38, i32* %6, align 4
  br label %40

39:                                               ; preds = %29
  store i32 0, i32* %4, align 4
  br label %44

40:                                               ; preds = %34
  br label %41

41:                                               ; preds = %40
  %42 = load i32, i32* %2, align 4
  %43 = add nsw i32 %42, 1
  store i32 %43, i32* %2, align 4
  br label %14

44:                                               ; preds = %39, %14
  br label %45

45:                                               ; preds = %44
  %46 = load i32, i32* %7, align 4
  %47 = add nsw i32 %46, 1
  store i32 %47, i32* %7, align 4
  br label %9

48:                                               ; preds = %9
  %49 = load i32, i32* %4, align 4
  %50 = call i32 (i8*, ...) @printf(i8* getelementptr inbounds ([4 x i8], [4 x i8]* @.str.1, i64 0, i64 0), i32 %49)
  ret i32 0
}

declare dso_local i32 @__isoc99_scanf(i8*, ...) #1

declare dso_local i32 @printf(i8*, ...) #1


!llvm.module.flags = !{!0}
!llvm.ident = !{!1}

!0 = !{i32 1, !"wchar_size", i32 4}
!1 = !{!"clang version 10.0.0-4ubuntu1 "}
